target datalayout = "e-m:e-p270:32:32-p271:32:32-p272:64:64-i64:64-i128:128-f80:128-n8:16:32:64-S128"
target triple = "x86_64-pc-linux-gnu"

@proto_register_olsr.ett_base = internal global [5 x ptr] [ptr @ett_olsr, ptr @ett_olsr_message_linktype, ptr @ett_olsr_message_neigh, ptr @ett_olsr_message_neigh6, ptr @ett_olsr_message_ns], align 16
@ett_olsr_message = internal global [256 x i32] zeroinitializer, align 16
@.str.82 = private unnamed_addr constant [38 x i8] c"Optimized Link State Routing Protocol\00", align 1
@.str.83 = private unnamed_addr constant [5 x i8] c"OLSR\00", align 1
@.str.84 = private unnamed_addr constant [5 x i8] c"olsr\00", align 1
@proto_olsr = internal global i32 0, align 4
@olsr_handle = internal global ptr null, align 8
@.str.85 = private unnamed_addr constant [11 x i8] c"ff_olsrorg\00", align 1
@.str.86 = private unnamed_addr constant [26 x i8] c"Dissect olsr.org messages\00", align 1
@.str.87 = private unnamed_addr constant [75 x i8] c"Dissect custom olsr.org message types (compatible with rfc routing agents)\00", align 1
@global_olsr_olsrorg = internal global i8 1, align 1
@.str.88 = private unnamed_addr constant [8 x i8] c"nrlolsr\00", align 1
@.str.89 = private unnamed_addr constant [29 x i8] c"Dissect NRL-Olsr TC messages\00", align 1
@.str.90 = private unnamed_addr constant [73 x i8] c"Dissect custom nrlolsr tc message (incompatible with rfc routing agents)\00", align 1
@global_olsr_nrlolsr = internal global i8 1, align 1

; Function Attrs: alwaysinline nounwind
define internal ptr @memcpy.inline(ptr noalias %0, ptr noalias %1, i64 %2) #2 {
  %4 = alloca ptr, align 8
  %5 = alloca ptr, align 8
  %6 = alloca i64, align 8
  store ptr %0, ptr %4, align 8
  store ptr %1, ptr %5, align 8
  store i64 %2, ptr %6, align 8
  %7 = load ptr, ptr %4, align 8
  %8 = load ptr, ptr %5, align 8
  %9 = load i64, ptr %6, align 8
  %10 = load ptr, ptr %4, align 8
  %11 = call i64 @llvm.objectsize.i64.p0(ptr %10, i1 false, i1 true, i1 true)
  %12 = call ptr @__memcpy_chk(ptr noundef %7, ptr noundef %8, i64 noundef %9, i64 noundef %11) #7
  ret ptr %12
}

; Function Attrs: null_pointer_is_valid sspstrong uwtable
define hidden void @proto_register_olsr() #0 {
  %1 = alloca [261 x ptr], align 16
  %2 = alloca ptr, align 8
  %3 = alloca ptr, align 8
  %4 = alloca i32, align 4
  %5 = alloca i32, align 4
  call void @llvm.lifetime.start.p0(i64 2088, ptr %1) #7
  call void @llvm.lifetime.start.p0(i64 8, ptr %2) #7
  call void @llvm.lifetime.start.p0(i64 8, ptr %3) #7
  call void @llvm.lifetime.start.p0(i64 4, ptr %4) #7
  call void @llvm.lifetime.start.p0(i64 4, ptr %5) #7
  %6 = getelementptr inbounds [261 x ptr], ptr %1, i64 0, i64 0
  %7 = call ptr @memcpy.inline(ptr noundef %6, ptr noundef @proto_register_olsr.ett_base, i64 noundef 40) #7
  store i32 5, ptr %5, align 4
  store i32 0, ptr %4, align 4
  br label %8

8:                                                ; preds = %19, %0
  %9 = load i32, ptr %4, align 4
  %10 = icmp slt i32 %9, 256
  br i1 %10, label %11, label %22

11:                                               ; preds = %8
  %12 = load i32, ptr %4, align 4
  %13 = sext i32 %12 to i64
  %14 = getelementptr [256 x i32], ptr @ett_olsr_message, i64 0, i64 %13
  %15 = load i32, ptr %5, align 4
  %16 = add i32 %15, 1
  store i32 %16, ptr %5, align 4
  %17 = sext i32 %15 to i64
  %18 = getelementptr [261 x ptr], ptr %1, i64 0, i64 %17
  store ptr %14, ptr %18, align 8
  br label %19

19:                                               ; preds = %11
  %20 = load i32, ptr %4, align 4
  %21 = add i32 %20, 1
  store i32 %21, ptr %4, align 4
  br label %8, !llvm.loop !6

22:                                               ; preds = %8
  %23 = call i32 @proto_register_protocol(ptr noundef @.str.82, ptr noundef @.str.83, ptr noundef @.str.84)
  store i32 %23, ptr @proto_olsr, align 4
  %24 = load i32, ptr @proto_olsr, align 4
  %25 = call ptr @register_dissector(ptr noundef @.str.84, ptr noundef @dissect_olsr, i32 noundef %24)
  store ptr %25, ptr @olsr_handle, align 8
  %26 = load i32, ptr @proto_olsr, align 4
  call void @proto_register_field_array(i32 noundef %26, ptr noundef @proto_register_olsr.hf, i32 noundef 38)
  %27 = getelementptr inbounds [261 x ptr], ptr %1, i64 0, i64 0
  call void @proto_register_subtree_array(ptr noundef %27, i32 noundef 261)
  %28 = load i32, ptr @proto_olsr, align 4
  %29 = call ptr @expert_register_protocol(i32 noundef %28)
  store ptr %29, ptr %3, align 8
  %30 = load ptr, ptr %3, align 8
  call void @expert_register_field_array(ptr noundef %30, ptr noundef @proto_register_olsr.ei, i32 noundef 3)
  %31 = load i32, ptr @proto_olsr, align 4
  %32 = call ptr @prefs_register_protocol(i32 noundef %31, ptr noundef null)
  store ptr %32, ptr %2, align 8
  %33 = load ptr, ptr %2, align 8
  call void @prefs_register_bool_preference(ptr noundef %33, ptr noundef @.str.85, ptr noundef @.str.86, ptr noundef @.str.87, ptr noundef @global_olsr_olsrorg)
  %34 = load ptr, ptr %2, align 8
  call void @prefs_register_bool_preference(ptr noundef %34, ptr noundef @.str.88, ptr noundef @.str.89, ptr noundef @.str.90, ptr noundef @global_olsr_nrlolsr)
  call void @llvm.lifetime.end.p0(i64 4, ptr %5) #7
  call void @llvm.lifetime.end.p0(i64 4, ptr %4) #7
  call void @llvm.lifetime.end.p0(i64 8, ptr %3) #7
  call void @llvm.lifetime.end.p0(i64 8, ptr %2) #7
  call void @llvm.lifetime.end.p0(i64 2088, ptr %1) #7
  ret void
}