; Function Attrs: null_pointer_is_valid sspstrong uwtable
define hidden void @proto_register_olsr() local_unnamed_addr #0 {
  %1 = alloca [261 x ptr], align 16
  call void @llvm.lifetime.start.p0(i64 2088, ptr nonnull %1) #4
  call void @llvm.memcpy.p0.p0.i64(ptr noundef nonnull align 16 dereferenceable(40) %1, ptr noundef nonnull align 16 dereferenceable(40) @proto_register_olsr.ett_base, i64 noundef 40, i1 noundef false) #4
  br label %2

2:                                                ; preds = %0, %2
  %indvars.iv9 = phi i64 [ 0, %0 ], [ %indvars.iv.next10, %2 ]
  %indvars.iv = phi i64 [ 5, %0 ], [ %indvars.iv.next, %2 ]
  %3 = getelementptr [256 x i32], ptr @ett_olsr_message, i64 0, i64 %indvars.iv9
  %indvars.iv.next = add nuw nsw i64 %indvars.iv, 1
  %4 = getelementptr [261 x ptr], ptr %1, i64 0, i64 %indvars.iv
  store ptr %3, ptr %4, align 8
  %indvars.iv.next10 = add nuw nsw i64 %indvars.iv9, 1
  %exitcond.not = icmp eq i64 %indvars.iv.next10, 256
  br i1 %exitcond.not, label %5, label %2, !llvm.loop !6

5:                                                ; preds = %2
  %6 = tail call i32 @proto_register_protocol(ptr noundef nonnull @.str.82, ptr noundef nonnull @.str.83, ptr noundef nonnull @.str.84)
  store i32 %6, ptr @proto_olsr, align 4
  %7 = tail call ptr @register_dissector(ptr noundef nonnull @.str.84, ptr noundef nonnull @dissect_olsr, i32 noundef %6)
  store ptr %7, ptr @olsr_handle, align 8
  %8 = load i32, ptr @proto_olsr, align 4
  tail call void @proto_register_field_array(i32 noundef %8, ptr noundef nonnull @proto_register_olsr.hf, i32 noundef 38)
  call void @proto_register_subtree_array(ptr noundef nonnull %1, i32 noundef 261)
  %9 = load i32, ptr @proto_olsr, align 4
  %10 = call ptr @expert_register_protocol(i32 noundef %9)
  call void @expert_register_field_array(ptr noundef %10, ptr noundef nonnull @proto_register_olsr.ei, i32 noundef 3)
  %11 = load i32, ptr @proto_olsr, align 4
  %12 = call ptr @prefs_register_protocol(i32 noundef %11, ptr noundef null)
  call void @prefs_register_bool_preference(ptr noundef %12, ptr noundef nonnull @.str.85, ptr noundef nonnull @.str.86, ptr noundef nonnull @.str.87, ptr noundef nonnull @global_olsr_olsrorg)
  call void @prefs_register_bool_preference(ptr noundef %12, ptr noundef nonnull @.str.88, ptr noundef nonnull @.str.89, ptr noundef nonnull @.str.90, ptr noundef nonnull @global_olsr_nrlolsr)
  call void @llvm.lifetime.end.p0(i64 2088, ptr nonnull %1) #4
  ret void
}